; Function Attrs: mustprogress uwtable
define hidden void @_ZN18OpenImageIO_v2_6_03pvt17TextureSystemImpl10invalidateENS_7ustringEb(ptr nocapture noundef nonnull readonly align 8 dereferenceable(184) %this, ptr nocapture noundef readonly %filename, i1 noundef zeroext %force) unnamed_addr #5 align 2 personality ptr @__gxx_personality_v0 {
entry:
  %agg.tmp = alloca %"class.OpenImageIO_v2_6_0::ustring", align 8
  %m_imagecache = getelementptr inbounds i8, ptr %this, i64 8
  %0 = load ptr, ptr %m_imagecache, align 8
  %1 = load ptr, ptr %filename, align 8
  store ptr %1, ptr %agg.tmp, align 8
  call void @_ZN18OpenImageIO_v2_6_03pvt14ImageCacheImpl10invalidateENS_7ustringEb(ptr noundef nonnull align 64 dereferenceable(25280) %0, ptr noundef nonnull %agg.tmp, i1 noundef zeroext %force)
  ret void
}